; Function Attrs: mustprogress nounwind uwtable
define hidden noundef range(i32 0, 16) i32 @_ZN11JvmtiExport32cv_external_thread_to_JavaThreadEP11ThreadsListP8_jobjectPP10JavaThreadPP7oopDesc(ptr noundef %0, ptr noundef %1, ptr nocapture noundef writeonly %2, ptr noundef writeonly %3) local_unnamed_addr #1 align 2 {
  %.not = icmp eq ptr %3, null
  br i1 %.not, label %6, label %5

5:                                                ; preds = %4
  store ptr null, ptr %3, align 8
  br label %6

6:                                                ; preds = %5, %4
  %7 = tail call noundef ptr @_ZN10JNIHandles22resolve_external_guardEP8_jobject(ptr noundef %1) #19
  %8 = icmp eq ptr %7, null
  br i1 %8, label %_ZNK7oopDesc4is_aEP5Klass.exit.thread19, label %9

9:                                                ; preds = %6
  %10 = load ptr, ptr getelementptr inbounds (i8, ptr @_ZN9vmClasses8_klassesE, i64 264), align 8
  %11 = load i8, ptr @UseCompressedClassPointers, align 1
  %12 = trunc i8 %11 to i1
  %13 = getelementptr inbounds i8, ptr %7, i64 8
  br i1 %12, label %14, label %24

14:                                               ; preds = %9
  %15 = load i32, ptr %13, align 8
  %16 = load ptr, ptr @_ZN23CompressedKlassPointers5_baseE, align 8
  %17 = load i32, ptr @_ZN23CompressedKlassPointers6_shiftE, align 4
  %18 = ptrtoint ptr %16 to i64
  %19 = zext i32 %15 to i64
  %20 = zext nneg i32 %17 to i64
  %21 = shl i64 %19, %20
  %22 = add i64 %21, %18
  %23 = inttoptr i64 %22 to ptr
  br label %_ZNK7oopDesc5klassEv.exit.i

24:                                               ; preds = %9
  %25 = load ptr, ptr %13, align 8
  br label %_ZNK7oopDesc5klassEv.exit.i

_ZNK7oopDesc5klassEv.exit.i:                      ; preds = %24, %14
  %.0.i.i = phi ptr [ %23, %14 ], [ %25, %24 ]
  %26 = getelementptr inbounds i8, ptr %10, i64 20
  %27 = load i32, ptr %26, align 4
  %28 = zext i32 %27 to i64
  %29 = getelementptr inbounds i8, ptr %.0.i.i, i64 %28
  %30 = load ptr, ptr %29, align 8
  %31 = icmp eq ptr %30, %10
  br i1 %31, label %_ZNK7oopDesc4is_aEP5Klass.exit.thread, label %32

32:                                               ; preds = %_ZNK7oopDesc5klassEv.exit.i
  %.not.i.i = icmp eq i32 %27, 32
  br i1 %.not.i.i, label %_ZNK7oopDesc4is_aEP5Klass.exit, label %_ZNK7oopDesc4is_aEP5Klass.exit.thread19

_ZNK7oopDesc4is_aEP5Klass.exit:                   ; preds = %32
  %33 = tail call noundef zeroext i1 @_ZNK5Klass23search_secondary_supersEPS_(ptr noundef nonnull align 8 dereferenceable(196) %.0.i.i, ptr noundef nonnull %10) #19
  br i1 %33, label %_ZNK7oopDesc4is_aEP5Klass.exit.thread, label %_ZNK7oopDesc4is_aEP5Klass.exit.thread19

_ZNK7oopDesc4is_aEP5Klass.exit.thread:            ; preds = %_ZNK7oopDesc5klassEv.exit.i, %_ZNK7oopDesc4is_aEP5Klass.exit
  br i1 %.not, label %35, label %34

34:                                               ; preds = %_ZNK7oopDesc4is_aEP5Klass.exit.thread
  store ptr %7, ptr %3, align 8
  br label %35

35:                                               ; preds = %34, %_ZNK7oopDesc4is_aEP5Klass.exit.thread
  %36 = tail call noundef ptr @_ZN16java_lang_Thread6threadEP7oopDesc(ptr noundef nonnull %7) #19
  %37 = icmp eq ptr %36, null
  br i1 %37, label %38, label %40

38:                                               ; preds = %35
  %39 = tail call noundef zeroext i1 @_ZN23java_lang_VirtualThread11is_instanceEP7oopDesc(ptr noundef nonnull %7) #19
  %. = select i1 %39, i32 10, i32 15
  br label %_ZNK7oopDesc4is_aEP5Klass.exit.thread19

40:                                               ; preds = %35
  %41 = tail call noundef zeroext i1 @_ZNK11ThreadsList8includesEPK10JavaThread(ptr noundef nonnull align 8 dereferenceable(32) %0, ptr noundef nonnull %36) #19
  br i1 %41, label %42, label %_ZNK7oopDesc4is_aEP5Klass.exit.thread19

42:                                               ; preds = %40
  store ptr %36, ptr %2, align 8
  br label %_ZNK7oopDesc4is_aEP5Klass.exit.thread19

_ZNK7oopDesc4is_aEP5Klass.exit.thread19:          ; preds = %32, %40, %38, %_ZNK7oopDesc4is_aEP5Klass.exit, %6, %42
  %.0 = phi i32 [ 0, %42 ], [ 10, %6 ], [ 10, %_ZNK7oopDesc4is_aEP5Klass.exit ], [ %., %38 ], [ 15, %40 ], [ 10, %32 ]
  ret i32 %.0
}